   1               		.file	"usb_keyboard.c"
   2               	__SREG__ = 0x3f
   3               	__SP_H__ = 0x3e
   4               	__SP_L__ = 0x3d
   5               	__CCP__  = 0x34
   6               	__tmp_reg__ = 0
   7               	__zero_reg__ = 1
  15               	.Ltext0:
  16               		.section	.text.usb_init,"ax",@progbits
  17               	.global	usb_init
  19               	usb_init:
  20               	.LFB2:
  21               	.LSM0:
  22               	/* prologue: function */
  23               	/* frame size = 0 */
  24               	.LSM1:
  25 0000 81E0      		ldi r24,lo8(1)
  26 0002 8093 D700 		sts 215,r24
  27               	.LSM2:
  28 0006 80EA      		ldi r24,lo8(-96)
  29 0008 8093 D800 		sts 216,r24
  30               	.LSM3:
  31 000c 82E1      		ldi r24,lo8(18)
  32 000e 89BD      		out 73-32,r24
  33               	.L2:
  34               	.LSM4:
  35 0010 09B4      		in __tmp_reg__,73-32
  36 0012 00FE      		sbrs __tmp_reg__,0
  37 0014 00C0      		rjmp .L2
  38               	.LSM5:
  39 0016 80E9      		ldi r24,lo8(-112)
  40 0018 8093 D800 		sts 216,r24
  41               	.LSM6:
  42 001c 1092 E000 		sts 224,__zero_reg__
  43               	.LSM7:
  44 0020 1092 0000 		sts usb_configuration,__zero_reg__
  45               	.LSM8:
  46 0024 8CE0      		ldi r24,lo8(12)
  47 0026 8093 E200 		sts 226,r24
  48               	.LSM9:
  49               	/* #APP */
  50               	 ;  280 "usb_keyboard.c" 1
  51 002a 7894      		sei
  52               	 ;  0 "" 2
  53               	/* epilogue start */
  54               	.LSM10:
  55               	/* #NOAPP */
  56 002c 0895      		ret
  57               	.LFE2:
  59               		.section	.text.usb_configured,"ax",@progbits
  60               	.global	usb_configured
  62               	usb_configured:
  63               	.LFB3:
  64               	.LSM11:
  65               	/* prologue: function */
  66               	/* frame size = 0 */
  67               	.LSM12:
  68 0000 8091 0000 		lds r24,usb_configuration
  69               	/* epilogue start */
  70               	.LSM13:
  71 0004 0895      		ret
  72               	.LFE3:
  74               		.section	.text.usb_keyboard_send,"ax",@progbits
  75               	.global	usb_keyboard_send
  77               	usb_keyboard_send:
  78               	.LFB5:
  79               	.LSM14:
  80               	/* prologue: function */
  81               	/* frame size = 0 */
  82               	.LSM15:
  83 0000 8091 0000 		lds r24,usb_configuration
  84 0004 8823      		tst r24
  85 0006 01F4      		brne .+2
  86 0008 00C0      		rjmp .L8
  87               	.LSM16:
  88 000a 2FB7      		in r18,__SREG__
  89               	.LVL0:
  90               	.LSM17:
  91               	/* #APP */
  92               	 ;  312 "usb_keyboard.c" 1
  93 000c F894      		cli
  94               	 ;  0 "" 2
  95               	.LSM18:
  96               	/* #NOAPP */
  97 000e 83E0      		ldi r24,lo8(3)
  98 0010 8093 E900 		sts 233,r24
  99               	.LSM19:
 100 0014 9091 E400 		lds r25,228
 101               	.LVL1:
 102 0018 9E5C      		subi r25,lo8(-(50))
 103               	.LSM20:
 104 001a 33E0      		ldi r19,lo8(3)
 105               	.L10:
 106               	.LSM21:
 107 001c 8091 E800 		lds r24,232
 108 0020 85FD      		sbrc r24,5
 109 0022 00C0      		rjmp .L9
 110               	.LSM22:
 111 0024 2FBF      		out __SREG__,r18
 112               	.LSM23:
 113 0026 8091 0000 		lds r24,usb_configuration
 114 002a 8823      		tst r24
 115 002c 01F0      		breq .L8
 116               	.LSM24:
 117 002e 8091 E400 		lds r24,228
 118 0032 8917      		cp r24,r25
 119 0034 01F0      		breq .L8
 120               	.LSM25:
 121 0036 2FB7      		in r18,__SREG__
 122               	.LSM26:
 123               	/* #APP */
 124               	 ;  325 "usb_keyboard.c" 1
 125 0038 F894      		cli
 126               	 ;  0 "" 2
 127               	.LSM27:
 128               	/* #NOAPP */
 129 003a 3093 E900 		sts 233,r19
 130 003e 00C0      		rjmp .L10
 131               	.L9:
 132               	.LSM28:
 133 0040 8091 0000 		lds r24,keyboard_modifier_keys
 134 0044 8093 F100 		sts 241,r24
 135               	.LSM29:
 136 0048 1092 F100 		sts 241,__zero_reg__
 137               	.LSM30:
 138 004c 8091 0000 		lds r24,keyboard_keys
 139 0050 8093 F100 		sts 241,r24
 140 0054 8091 0000 		lds r24,keyboard_keys+1
 141 0058 8093 F100 		sts 241,r24
 142 005c 8091 0000 		lds r24,keyboard_keys+2
 143 0060 8093 F100 		sts 241,r24
 144 0064 8091 0000 		lds r24,keyboard_keys+3
 145 0068 8093 F100 		sts 241,r24
 146 006c 8091 0000 		lds r24,keyboard_keys+4
 147 0070 8093 F100 		sts 241,r24
 148 0074 8091 0000 		lds r24,keyboard_keys+5
 149 0078 8093 F100 		sts 241,r24
 150               	.LSM31:
 151 007c 8AE3      		ldi r24,lo8(58)
 152 007e 8093 E800 		sts 232,r24
 153               	.LSM32:
 154 0082 1092 0000 		sts keyboard_idle_count,__zero_reg__
 155               	.LSM33:
 156 0086 2FBF      		out __SREG__,r18
 157 0088 80E0      		ldi r24,lo8(0)
 158 008a 0895      		ret
 159               	.L8:
 160               	.LSM34:
 161 008c 8FEF      		ldi r24,lo8(-1)
 162               	.LSM35:
 163 008e 0895      		ret
 164               	.LFE5:
 166               		.section	.text.usb_keyboard_press,"ax",@progbits
 167               	.global	usb_keyboard_press
 169               	usb_keyboard_press:
 170               	.LFB4:
 171               	.LSM36:
 172               	.LVL2:
 173               	/* prologue: function */
 174               	/* frame size = 0 */
 175               	.LSM37:
 176 0000 6093 0000 		sts keyboard_modifier_keys,r22
 177               	.LSM38:
 178 0004 8093 0000 		sts keyboard_keys,r24
 179               	.LSM39:
 180 0008 0E94 0000 		call usb_keyboard_send
 181               	.LVL3:
 182               	.LSM40:
 183 000c 8823      		tst r24
 184               	.LVL4:
 185 000e 01F4      		brne .L14
 186               	.LSM41:
 187 0010 1092 0000 		sts keyboard_modifier_keys,__zero_reg__
 188               	.LSM42:
 189 0014 1092 0000 		sts keyboard_keys,__zero_reg__
 190               	.LSM43:
 191 0018 0E94 0000 		call usb_keyboard_send
 192               	.LVL5:
 193               	.L14:
 194               	.LVL6:
 195               	.LSM44:
 196 001c 0895      		ret
 197               	.LFE4:
 199               		.section	.text.__vector_10,"ax",@progbits
 200               	.global	__vector_10
 202               	__vector_10:
 203               	.LFB6:
 204               	.LSM45:
 205 0000 1F92      		push __zero_reg__
 206 0002 0F92      		push r0
 207 0004 0FB6      		in r0,__SREG__
 208 0006 0F92      		push r0
 209 0008 1124      		clr __zero_reg__
 210 000a 2F93      		push r18
 211 000c 8F93      		push r24
 212 000e 9F93      		push r25
 213               	/* prologue: Signal */
 214               	/* frame size = 0 */
 215               	.LSM46:
 216 0010 8091 E100 		lds r24,225
 217               	.LVL7:
 218               	.LSM47:
 219 0014 1092 E100 		sts 225,__zero_reg__
 220               	.LSM48:
 221 0018 982F      		mov r25,r24
 222 001a 83FF      		sbrs r24,3
 223 001c 00C0      		rjmp .L17
 224               	.LVL8:
 225               	.LSM49:
 226 001e 1092 E900 		sts 233,__zero_reg__
 227               	.LSM50:
 228 0022 81E0      		ldi r24,lo8(1)
 229 0024 8093 EB00 		sts 235,r24
 230               	.LSM51:
 231 0028 1092 EC00 		sts 236,__zero_reg__
 232               	.LSM52:
 233 002c 82E2      		ldi r24,lo8(34)
 234 002e 8093 ED00 		sts 237,r24
 235               	.LSM53:
 236 0032 88E0      		ldi r24,lo8(8)
 237 0034 8093 F000 		sts 240,r24
 238               	.LSM54:
 239 0038 1092 0000 		sts usb_configuration,__zero_reg__
 240               	.L17:
 241               	.LSM55:
 242 003c 92FF      		sbrs r25,2
 243 003e 00C0      		rjmp .L19
 244 0040 8091 0000 		lds r24,usb_configuration
 245 0044 8823      		tst r24
 246 0046 01F4      		brne .+2
 247 0048 00C0      		rjmp .L19
 248               	.LSM56:
 249 004a 2091 0000 		lds r18,keyboard_idle_config
 250 004e 2223      		tst r18
 251 0050 01F0      		breq .L19
 252 0052 8091 0000 		lds r24,div4.1423
 253 0056 8F5F      		subi r24,lo8(-(1))
 254 0058 8093 0000 		sts div4.1423,r24
 255 005c 90E0      		ldi r25,lo8(0)
 256 005e 8370      		andi r24,lo8(3)
 257 0060 9070      		andi r25,hi8(3)
 258 0062 892B      		or r24,r25
 259 0064 01F4      		brne .L19
 260               	.LSM57:
 261 0066 83E0      		ldi r24,lo8(3)
 262 0068 8093 E900 		sts 233,r24
 263               	.LSM58:
 264 006c 8091 E800 		lds r24,232
 265 0070 85FF      		sbrs r24,5
 266 0072 00C0      		rjmp .L19
 267               	.LSM59:
 268 0074 8091 0000 		lds r24,keyboard_idle_count
 269 0078 8F5F      		subi r24,lo8(-(1))
 270 007a 8093 0000 		sts keyboard_idle_count,r24
 271               	.LSM60:
 272 007e 8217      		cp r24,r18
 273 0080 01F4      		brne .L19
 274               	.LSM61:
 275 0082 1092 0000 		sts keyboard_idle_count,__zero_reg__
 276               	.LSM62:
 277 0086 8091 0000 		lds r24,keyboard_modifier_keys
 278 008a 8093 F100 		sts 241,r24
 279               	.LSM63:
 280 008e 1092 F100 		sts 241,__zero_reg__
 281               	.LSM64:
 282 0092 8091 0000 		lds r24,keyboard_keys
 283 0096 8093 F100 		sts 241,r24
 284 009a 8091 0000 		lds r24,keyboard_keys+1
 285 009e 8093 F100 		sts 241,r24
 286 00a2 8091 0000 		lds r24,keyboard_keys+2
 287 00a6 8093 F100 		sts 241,r24
 288 00aa 8091 0000 		lds r24,keyboard_keys+3
 289 00ae 8093 F100 		sts 241,r24
 290 00b2 8091 0000 		lds r24,keyboard_keys+4
 291 00b6 8093 F100 		sts 241,r24
 292 00ba 8091 0000 		lds r24,keyboard_keys+5
 293 00be 8093 F100 		sts 241,r24
 294               	.LSM65:
 295 00c2 8AE3      		ldi r24,lo8(58)
 296 00c4 8093 E800 		sts 232,r24
 297               	.L19:
 298               	/* epilogue start */
 299               	.LSM66:
 300 00c8 9F91      		pop r25
 301 00ca 8F91      		pop r24
 302 00cc 2F91      		pop r18
 303 00ce 0F90      		pop r0
 304 00d0 0FBE      		out __SREG__,r0
 305 00d2 0F90      		pop r0
 306 00d4 1F90      		pop __zero_reg__
 307 00d6 1895      		reti
 308               	.LFE6:
 310               		.section	.text.__vector_11,"ax",@progbits
 311               	.global	__vector_11
 313               	__vector_11:
 314               	.LFB11:
 315               	.LSM67:
 316 0000 1F92      		push __zero_reg__
 317 0002 0F92      		push r0
 318 0004 0FB6      		in r0,__SREG__
 319 0006 0F92      		push r0
 320 0008 1124      		clr __zero_reg__
 321 000a 0F93      		push r16
 322 000c 1F93      		push r17
 323 000e 2F93      		push r18
 324 0010 3F93      		push r19
 325 0012 4F93      		push r20
 326 0014 5F93      		push r21
 327 0016 6F93      		push r22
 328 0018 7F93      		push r23
 329 001a 8F93      		push r24
 330 001c 9F93      		push r25
 331 001e AF93      		push r26
 332 0020 BF93      		push r27
 333 0022 EF93      		push r30
 334 0024 FF93      		push r31
 335               	/* prologue: Signal */
 336               	/* frame size = 0 */
 337               	.LSM68:
 338 0026 1092 E900 		sts 233,__zero_reg__
 339               	.LSM69:
 340 002a 8091 E800 		lds r24,232
 341               	.LVL9:
 342               	.LSM70:
 343 002e 83FF      		sbrs r24,3
 344 0030 00C0      		rjmp .L21
 345               	.LSM71:
 346 0032 4091 F100 		lds r20,241
 347               	.LVL10:
 348               	.LSM72:
 349 0036 3091 F100 		lds r19,241
 350               	.LVL11:
 351               	.LSM73:
 352 003a 8091 F100 		lds r24,241
 353               	.LVL12:
 354 003e 682F      		mov r22,r24
 355               	.LVL13:
 356 0040 70E0      		ldi r23,lo8(0)
 357               	.LVL14:
 358               	.LSM74:
 359 0042 2091 F100 		lds r18,241
 360 0046 922F      		mov r25,r18
 361 0048 80E0      		ldi r24,lo8(0)
 362 004a 682B      		or r22,r24
 363 004c 792B      		or r23,r25
 364               	.LVL15:
 365               	.LSM75:
 366 004e 8091 F100 		lds r24,241
 367 0052 A82F      		mov r26,r24
 368               	.LVL16:
 369 0054 B0E0      		ldi r27,lo8(0)
 370               	.LVL17:
 371               	.LSM76:
 372 0056 2091 F100 		lds r18,241
 373 005a 922F      		mov r25,r18
 374 005c 80E0      		ldi r24,lo8(0)
 375 005e A82B      		or r26,r24
 376 0060 B92B      		or r27,r25
 377               	.LVL18:
 378               	.LSM77:
 379 0062 1091 F100 		lds r17,241
 380               	.LSM78:
 381 0066 0091 F100 		lds r16,241
 382               	.LSM79:
 383 006a 82EF      		ldi r24,lo8(-14)
 384 006c 8093 E800 		sts 232,r24
 385               	.LSM80:
 386 0070 3630      		cpi r19,lo8(6)
 387 0072 01F0      		breq .+2
 388 0074 00C0      		rjmp .L22
 389 0076 20E0      		ldi r18,lo8(descriptor_list+7)
 390 0078 30E0      		ldi r19,hi8(descriptor_list+7)
 391 007a A901      		movw r20,r18
 392               	.LVL19:
 393 007c 4550      		subi r20,lo8(-(-5))
 394 007e 5040      		sbci r21,hi8(-(-5))
 395               	.LVL20:
 396               	.L23:
 397               	.LSM81:
 398 0080 F901      		movw r30,r18
 399               	.LVL21:
 400 0082 3797      		sbiw r30,7
 401               	.LBB50:
 402               	.LSM82:
 403               	/* #APP */
 404               	 ;  444 "usb_keyboard.c" 1
 405 0084 8591      		lpm r24, Z+
 406 0086 9491      		lpm r25, Z
 407               		
 408               	 ;  0 "" 2
 409               	.LVL22:
 410               	/* #NOAPP */
 411               	.LBE50:
 412               	.LSM83:
 413 0088 8617      		cp r24,r22
 414 008a 9707      		cpc r25,r23
 415 008c 01F4      		brne .L25
 416               	.LBB51:
 417               	.LSM84:
 418 008e FA01      		movw r30,r20
 419               	.LVL23:
 420               	/* #APP */
 421               	 ;  450 "usb_keyboard.c" 1
 422 0090 8591      		lpm r24, Z+
 423 0092 9491      		lpm r25, Z
 424               		
 425               	 ;  0 "" 2
 426               	.LVL24:
 427               	/* #NOAPP */
 428               	.LBE51:
 429               	.LSM85:
 430 0094 8A17      		cp r24,r26
 431 0096 9B07      		cpc r25,r27
 432 0098 01F4      		brne .L25
 433               	.LSM86:
 434 009a 9A01      		movw r18,r20
 435               	.LVL25:
 436 009c 2E5F      		subi r18,lo8(-(2))
 437 009e 3F4F      		sbci r19,hi8(-(2))
 438               	.LSM87:
 439 00a0 F901      		movw r30,r18
 440               	.LVL26:
 441               	/* #APP */
 442               	 ;  456 "usb_keyboard.c" 1
 443 00a2 6591      		lpm r22, Z+
 444 00a4 7491      		lpm r23, Z
 445               		
 446               	 ;  0 "" 2
 447               	.LVL27:
 448               	/* #NOAPP */
 449               	.LBB52:
 450               	.LSM88:
 451 00a6 2E5F      		subi r18,lo8(-(2))
 452 00a8 3F4F      		sbci r19,hi8(-(2))
 453               	.LVL28:
 454 00aa F901      		movw r30,r18
 455               	/* #APP */
 456               	 ;  458 "usb_keyboard.c" 1
 457 00ac 4491      		lpm r20, Z
 458               		
 459               	 ;  0 "" 2
 460               	.LVL29:
 461               	/* #NOAPP */
 462               	.LBE52:
 463               	.LSM89:
 464 00ae 212F      		mov r18,r17
 465               	.LVL30:
 466 00b0 30E0      		ldi r19,lo8(0)
 467               	.LVL31:
 468               	.LSM90:
 469 00b2 902F      		mov r25,r16
 470 00b4 80E0      		ldi r24,lo8(0)
 471               	.LVL32:
 472 00b6 282B      		or r18,r24
 473 00b8 392B      		or r19,r25
 474 00ba 2F3F      		cpi r18,255
 475 00bc 3105      		cpc r19,__zero_reg__
 476 00be 01F0      		breq .L26
 477 00c0 00F0      		brlo .L26
 478 00c2 2FEF      		ldi r18,lo8(255)
 479 00c4 30E0      		ldi r19,hi8(255)
 480               	.L26:
 481 00c6 2417      		cp r18,r20
 482               	.LVL33:
 483 00c8 00F4      		brsh .L59
 484 00ca 422F      		mov r20,r18
 485               	.LVL34:
 486 00cc 00C0      		rjmp .L59
 487               	.LVL35:
 488               	.L25:
 489 00ce 295F      		subi r18,lo8(-(7))
 490 00d0 3F4F      		sbci r19,hi8(-(7))
 491 00d2 495F      		subi r20,lo8(-(7))
 492 00d4 5F4F      		sbci r21,hi8(-(7))
 493               	.LSM91:
 494 00d6 F0E0      		ldi r31,hi8(descriptor_list+56)
 495 00d8 2030      		cpi r18,lo8(descriptor_list+56)
 496 00da 3F07      		cpc r19,r31
 497 00dc 01F4      		brne .L23
 498 00de 00C0      		rjmp .L21
 499               	.LVL36:
 500               	.L59:
 501               	.LBB53:
 502               	.LBB54:
 503               	.LSM92:
 504 00e0 5EEF      		ldi r21,lo8(-2)
 505               	.LVL37:
 506               	.L75:
 507               	.LBE54:
 508               	.LBE53:
 509               	.LSM93:
 510 00e2 8091 E800 		lds r24,232
 511               	.LVL38:
 512               	.LSM94:
 513 00e6 282F      		mov r18,r24
 514 00e8 30E0      		ldi r19,lo8(0)
 515               	.LVL39:
 516 00ea C901      		movw r24,r18
 517               	.LVL40:
 518 00ec 8570      		andi r24,lo8(5)
 519 00ee 9070      		andi r25,hi8(5)
 520 00f0 892B      		or r24,r25
 521 00f2 01F0      		breq .L75
 522               	.LSM95:
 523 00f4 22FD      		sbrc r18,2
 524 00f6 00C0      		rjmp .L56
 525               	.LSM96:
 526 00f8 342F      		mov r19,r20
 527               	.LVL41:
 528 00fa 4132      		cpi r20,lo8(33)
 529 00fc 00F0      		brlo .L30
 530 00fe 30E2      		ldi r19,lo8(32)
 531               	.L30:
 532 0100 232F      		mov r18,r19
 533               	.LVL42:
 534 0102 CB01      		movw r24,r22
 535 0104 00C0      		rjmp .L31
 536               	.LVL43:
 537               	.L32:
 538               	.LSM97:
 539 0106 FC01      		movw r30,r24
 540               	.LVL44:
 541               	.LBB56:
 542               	.LSM98:
 543 0108 0196      		adiw r24,1
 544               	/* #APP */
 545               	 ;  472 "usb_keyboard.c" 1
 546 010a E491      		lpm r30, Z
 547               		
 548               	 ;  0 "" 2
 549               	.LVL45:
 550               	/* #NOAPP */
 551               	.LBE56:
 552 010c E093 F100 		sts 241,r30
 553               	.LSM99:
 554 0110 2150      		subi r18,lo8(-(-1))
 555               	.LVL46:
 556               	.L31:
 557 0112 2223      		tst r18
 558 0114 01F4      		brne .L32
 559 0116 630F      		add r22,r19
 560 0118 711D      		adc r23,__zero_reg__
 561               	.LVL47:
 562               	.LSM100:
 563 011a 431B      		sub r20,r19
 564               	.LVL48:
 565               	.LBB57:
 566               	.LBB55:
 567               	.LSM101:
 568 011c 5093 E800 		sts 232,r21
 569               	.LBE55:
 570               	.LBE57:
 571               	.LSM102:
 572 0120 4423      		tst r20
 573 0122 01F4      		brne .L75
 574 0124 3032      		cpi r19,lo8(32)
 575 0126 01F0      		breq .L75
 576 0128 00C0      		rjmp .L56
 577               	.LVL49:
 578               	.L22:
 579               	.LSM103:
 580 012a 3530      		cpi r19,lo8(5)
 581 012c 01F4      		brne .L33
 582               	.LBB58:
 583               	.LBB59:
 584               	.LSM104:
 585 012e 8EEF      		ldi r24,lo8(-2)
 586 0130 8093 E800 		sts 232,r24
 587               	.L34:
 588               	.LBE59:
 589               	.LBE58:
 590               	.LBB60:
 591               	.LBB61:
 592               	.LSM105:
 593 0134 8091 E800 		lds r24,232
 594 0138 80FF      		sbrs r24,0
 595 013a 00C0      		rjmp .L34
 596               	.LBE61:
 597               	.LBE60:
 598               	.LSM106:
 599 013c 862F      		mov r24,r22
 600               	.LVL50:
 601 013e 8068      		ori r24,lo8(-128)
 602 0140 8093 E300 		sts 227,r24
 603 0144 00C0      		rjmp .L56
 604               	.LVL51:
 605               	.L33:
 606               	.LSM107:
 607 0146 3930      		cpi r19,lo8(9)
 608 0148 01F4      		brne .L35
 609 014a 4423      		tst r20
 610 014c 01F0      		breq .+2
 611 014e 00C0      		rjmp .L45
 612               	.LSM108:
 613 0150 6093 0000 		sts usb_configuration,r22
 614               	.LBB62:
 615               	.LBB63:
 616               	.LSM109:
 617 0154 8EEF      		ldi r24,lo8(-2)
 618 0156 8093 E800 		sts 232,r24
 619 015a 80E0      		ldi r24,lo8(endpoint_config_table)
 620 015c 90E0      		ldi r25,hi8(endpoint_config_table)
 621               	.LVL52:
 622 015e 21E0      		ldi r18,lo8(1)
 623               	.LVL53:
 624               	.L38:
 625               	.LBE63:
 626               	.LBE62:
 627               	.LSM110:
 628 0160 2093 E900 		sts 233,r18
 629               	.LBB64:
 630               	.LSM111:
 631 0164 FC01      		movw r30,r24
 632               	.LVL54:
 633 0166 0196      		adiw r24,1
 634               	/* #APP */
 635               	 ;  491 "usb_keyboard.c" 1
 636 0168 E491      		lpm r30, Z
 637               		
 638               	 ;  0 "" 2
 639               	.LVL55:
 640               	/* #NOAPP */
 641               	.LBE64:
 642               	.LSM112:
 643 016a E093 EB00 		sts 235,r30
 644               	.LSM113:
 645 016e EE23      		tst r30
 646 0170 01F0      		breq .L37
 647               	.LBB65:
 648               	.LSM114:
 649 0172 AC01      		movw r20,r24
 650               	.LVL56:
 651 0174 4F5F      		subi r20,lo8(-(1))
 652 0176 5F4F      		sbci r21,hi8(-(1))
 653               	.LVL57:
 654 0178 FC01      		movw r30,r24
 655               	.LVL58:
 656               	/* #APP */
 657               	 ;  494 "usb_keyboard.c" 1
 658 017a 8491      		lpm r24, Z
 659               		
 660               	 ;  0 "" 2
 661               	.LVL59:
 662               	/* #NOAPP */
 663               	.LBE65:
 664 017c 8093 EC00 		sts 236,r24
 665               	.LBB66:
 666               	.LSM115:
 667 0180 CA01      		movw r24,r20
 668               	.LVL60:
 669 0182 0196      		adiw r24,1
 670               	.LVL61:
 671 0184 FA01      		movw r30,r20
 672               	/* #APP */
 673               	 ;  495 "usb_keyboard.c" 1
 674 0186 3491      		lpm r19, Z
 675               		
 676               	 ;  0 "" 2
 677               	.LVL62:
 678               	/* #NOAPP */
 679               	.LBE66:
 680 0188 3093 ED00 		sts 237,r19
 681               	.LVL63:
 682               	.L37:
 683               	.LSM116:
 684 018c 2F5F      		subi r18,lo8(-(1))
 685 018e 2530      		cpi r18,lo8(5)
 686 0190 01F4      		brne .L38
 687               	.LSM117:
 688 0192 8EE1      		ldi r24,lo8(30)
 689               	.LVL64:
 690 0194 00C0      		rjmp .L77
 691               	.LVL65:
 692               	.L35:
 693               	.LSM118:
 694 0196 3830      		cpi r19,lo8(8)
 695 0198 01F4      		brne .L39
 696 019a 4038      		cpi r20,lo8(-128)
 697 019c 01F0      		breq .+2
 698 019e 00C0      		rjmp .L45
 699               	.L64:
 700               	.LBB67:
 701               	.LBB68:
 702               	.LSM119:
 703 01a0 8091 E800 		lds r24,232
 704 01a4 80FF      		sbrs r24,0
 705 01a6 00C0      		rjmp .L64
 706               	.LBE68:
 707               	.LBE67:
 708               	.LSM120:
 709 01a8 8091 0000 		lds r24,usb_configuration
 710 01ac 00C0      		rjmp .L78
 711               	.L39:
 712               	.LSM121:
 713 01ae 3323      		tst r19
 714 01b0 01F4      		brne .L36
 715               	.L65:
 716               	.LBB69:
 717               	.LBB70:
 718               	.LSM122:
 719 01b2 8091 E800 		lds r24,232
 720 01b6 80FF      		sbrs r24,0
 721 01b8 00C0      		rjmp .L65
 722               	.LBE70:
 723               	.LBE69:
 724               	.LSM123:
 725 01ba 4238      		cpi r20,lo8(-126)
 726 01bc 01F0      		breq .L42
 727 01be 80E0      		ldi r24,lo8(0)
 728               	.LVL66:
 729 01c0 00C0      		rjmp .L43
 730               	.LVL67:
 731               	.L42:
 732               	.LSM124:
 733 01c2 A093 E900 		sts 233,r26
 734               	.LSM125:
 735 01c6 8091 EB00 		lds r24,235
 736 01ca 90E0      		ldi r25,lo8(0)
 737 01cc 25E0      		ldi r18,5
 738 01ce 9695      	1:	lsr r25
 739 01d0 8795      		ror r24
 740 01d2 2A95      		dec r18
 741 01d4 01F4      		brne 1b
 742 01d6 8170      		andi r24,lo8(1)
 743               	.LVL68:
 744               	.LSM126:
 745 01d8 1092 E900 		sts 233,__zero_reg__
 746               	.L43:
 747               	.LSM127:
 748 01dc 8093 F100 		sts 241,r24
 749               	.LSM128:
 750 01e0 1092 F100 		sts 241,__zero_reg__
 751 01e4 00C0      		rjmp .L76
 752               	.LVL69:
 753               	.L36:
 754               	.LSM129:
 755 01e6 3130      		cpi r19,lo8(1)
 756 01e8 01F0      		breq .L44
 757 01ea 3330      		cpi r19,lo8(3)
 758 01ec 01F4      		brne .L45
 759               	.L44:
 760 01ee 4230      		cpi r20,lo8(2)
 761 01f0 01F4      		brne .L45
 762 01f2 6115      		cp r22,__zero_reg__
 763 01f4 7105      		cpc r23,__zero_reg__
 764 01f6 01F4      		brne .L45
 765               	.LSM130:
 766 01f8 2A2F      		mov r18,r26
 767               	.LVL70:
 768 01fa 2F77      		andi r18,lo8(127)
 769               	.LSM131:
 770 01fc 822F      		mov r24,r18
 771 01fe 8150      		subi r24,lo8(-(-1))
 772 0200 8430      		cpi r24,lo8(4)
 773 0202 00F4      		brsh .L45
 774               	.LBB71:
 775               	.LBB72:
 776               	.LSM132:
 777 0204 8EEF      		ldi r24,lo8(-2)
 778 0206 8093 E800 		sts 232,r24
 779               	.LBE72:
 780               	.LBE71:
 781               	.LSM133:
 782 020a 2093 E900 		sts 233,r18
 783               	.LSM134:
 784 020e 3330      		cpi r19,lo8(3)
 785 0210 01F4      		brne .+2
 786 0212 00C0      		rjmp .L21
 787               	.L46:
 788               	.LSM135:
 789 0214 89E1      		ldi r24,lo8(25)
 790 0216 8093 EB00 		sts 235,r24
 791               	.LSM136:
 792 021a 81E0      		ldi r24,lo8(1)
 793 021c 90E0      		ldi r25,hi8(1)
 794 021e 00C0      		rjmp 2f
 795 0220 880F      	1:	lsl r24
 796 0222 991F      		rol r25
 797 0224 2A95      	2:	dec r18
 798 0226 02F4      		brpl 1b
 799               	.LVL71:
 800               	.L77:
 801 0228 8093 EA00 		sts 234,r24
 802               	.LSM137:
 803 022c 1092 EA00 		sts 234,__zero_reg__
 804 0230 00C0      		rjmp .L56
 805               	.LVL72:
 806               	.L45:
 807               	.LSM138:
 808 0232 AB2B      		or r26,r27
 809 0234 01F0      		breq .+2
 810 0236 00C0      		rjmp .L21
 811               	.LSM139:
 812 0238 413A      		cpi r20,lo8(-95)
 813 023a 01F4      		brne .L47
 814               	.LSM140:
 815 023c 3130      		cpi r19,lo8(1)
 816 023e 01F4      		brne .L48
 817               	.L60:
 818               	.LBB73:
 819               	.LBB74:
 820               	.LSM141:
 821 0240 8091 E800 		lds r24,232
 822 0244 80FF      		sbrs r24,0
 823 0246 00C0      		rjmp .L60
 824               	.LBE74:
 825               	.LBE73:
 826               	.LSM142:
 827 0248 8091 0000 		lds r24,keyboard_modifier_keys
 828 024c 8093 F100 		sts 241,r24
 829               	.LSM143:
 830 0250 1092 F100 		sts 241,__zero_reg__
 831               	.LSM144:
 832 0254 8091 0000 		lds r24,keyboard_keys
 833 0258 8093 F100 		sts 241,r24
 834 025c 8091 0000 		lds r24,keyboard_keys+1
 835 0260 8093 F100 		sts 241,r24
 836 0264 8091 0000 		lds r24,keyboard_keys+2
 837 0268 8093 F100 		sts 241,r24
 838 026c 8091 0000 		lds r24,keyboard_keys+3
 839 0270 8093 F100 		sts 241,r24
 840 0274 8091 0000 		lds r24,keyboard_keys+4
 841 0278 8093 F100 		sts 241,r24
 842 027c 8091 0000 		lds r24,keyboard_keys+5
 843 0280 00C0      		rjmp .L78
 844               	.L48:
 845               	.LSM145:
 846 0282 3230      		cpi r19,lo8(2)
 847 0284 01F4      		brne .L50
 848               	.L61:
 849               	.LBB75:
 850               	.LBB76:
 851               	.LSM146:
 852 0286 8091 E800 		lds r24,232
 853 028a 80FF      		sbrs r24,0
 854 028c 00C0      		rjmp .L61
 855               	.LBE76:
 856               	.LBE75:
 857               	.LSM147:
 858 028e 8091 0000 		lds r24,keyboard_idle_config
 859 0292 00C0      		rjmp .L78
 860               	.L50:
 861               	.LSM148:
 862 0294 3330      		cpi r19,lo8(3)
 863 0296 01F4      		brne .L21
 864               	.L62:
 865               	.LBB77:
 866               	.LBB78:
 867               	.LSM149:
 868 0298 8091 E800 		lds r24,232
 869 029c 80FF      		sbrs r24,0
 870 029e 00C0      		rjmp .L62
 871               	.LBE78:
 872               	.LBE77:
 873               	.LSM150:
 874 02a0 8091 0000 		lds r24,keyboard_protocol
 875               	.L78:
 876 02a4 8093 F100 		sts 241,r24
 877 02a8 00C0      		rjmp .L76
 878               	.L47:
 879               	.LSM151:
 880 02aa 4132      		cpi r20,lo8(33)
 881 02ac 01F4      		brne .L21
 882               	.LSM152:
 883 02ae 3930      		cpi r19,lo8(9)
 884 02b0 01F4      		brne .L53
 885               	.L63:
 886               	.LBB79:
 887               	.LBB80:
 888               	.LSM153:
 889 02b2 8091 E800 		lds r24,232
 890 02b6 82FF      		sbrs r24,2
 891 02b8 00C0      		rjmp .L63
 892               	.LBE80:
 893               	.LBE79:
 894               	.LSM154:
 895 02ba 8091 F100 		lds r24,241
 896 02be 8093 0000 		sts keyboard_leds,r24
 897               	.LBB81:
 898               	.LBB82:
 899               	.LSM155:
 900 02c2 8BEF      		ldi r24,lo8(-5)
 901 02c4 8093 E800 		sts 232,r24
 902 02c8 00C0      		rjmp .L76
 903               	.L53:
 904               	.LBE82:
 905               	.LBE81:
 906               	.LSM156:
 907 02ca 3A30      		cpi r19,lo8(10)
 908 02cc 01F4      		brne .L55
 909               	.LSM157:
 910 02ce 7093 0000 		sts keyboard_idle_config,r23
 911               	.LSM158:
 912 02d2 1092 0000 		sts keyboard_idle_count,__zero_reg__
 913 02d6 00C0      		rjmp .L76
 914               	.L55:
 915               	.LSM159:
 916 02d8 3B30      		cpi r19,lo8(11)
 917 02da 01F4      		brne .L21
 918               	.LSM160:
 919 02dc 6093 0000 		sts keyboard_protocol,r22
 920               	.LVL73:
 921               	.L76:
 922               	.LBB83:
 923               	.LBB84:
 924               	.LSM161:
 925 02e0 8EEF      		ldi r24,lo8(-2)
 926 02e2 8093 E800 		sts 232,r24
 927 02e6 00C0      		rjmp .L56
 928               	.LVL74:
 929               	.L21:
 930               	.LBE84:
 931               	.LBE83:
 932               	.LSM162:
 933 02e8 81E2      		ldi r24,lo8(33)
 934               	.LVL75:
 935 02ea 8093 EB00 		sts 235,r24
 936               	.LVL76:
 937               	.L56:
 938               	/* epilogue start */
 939               	.LSM163:
 940 02ee FF91      		pop r31
 941 02f0 EF91      		pop r30
 942               	.LVL77:
 943 02f2 BF91      		pop r27
 944               	.LVL78:
 945 02f4 AF91      		pop r26
 946               	.LVL79:
 947 02f6 9F91      		pop r25
 948 02f8 8F91      		pop r24
 949 02fa 7F91      		pop r23
 950               	.LVL80:
 951 02fc 6F91      		pop r22
 952               	.LVL81:
 953 02fe 5F91      		pop r21
 954 0300 4F91      		pop r20
 955               	.LVL82:
 956 0302 3F91      		pop r19
 957               	.LVL83:
 958 0304 2F91      		pop r18
 959               	.LVL84:
 960 0306 1F91      		pop r17
 961 0308 0F91      		pop r16
 962 030a 0F90      		pop r0
 963 030c 0FBE      		out __SREG__,r0
 964 030e 0F90      		pop r0
 965 0310 1F90      		pop __zero_reg__
 966 0312 1895      		reti
 967               	.LFE11:
 969               	.global	keyboard_modifier_keys
 970               	.global	keyboard_modifier_keys
 971               		.section .bss
 974               	keyboard_modifier_keys:
 975 0000 00        		.skip 1,0
 976               	.global	keyboard_keys
 977               	.global	keyboard_keys
 980               	keyboard_keys:
 981 0001 0000 0000 		.skip 6,0
 981      0000 
 982               	.global	keyboard_leds
 983               	.global	keyboard_leds
 986               	keyboard_leds:
 987 0007 00        		.skip 1,0
 988               		.section	.progmem.data,"a",@progbits
 991               	descriptor_list:
 992 0000 0001      		.word	256
 993 0002 0000      		.word	0
 994 0004 0000      		.word	device_descriptor
 995 0006 12        		.byte	18
 996 0007 0002      		.word	512
 997 0009 0000      		.word	0
 998 000b 0000      		.word	config1_descriptor
 999 000d 22        		.byte	34
 1000 000e 0022      		.word	8704
 1001 0010 0000      		.word	0
 1002 0012 0000      		.word	keyboard_hid_report_desc
 1003 0014 3F        		.byte	63
 1004 0015 0021      		.word	8448
 1005 0017 0000      		.word	0
 1006 0019 0000      		.word	config1_descriptor+18
 1007 001b 09        		.byte	9
 1008 001c 0003      		.word	768
 1009 001e 0000      		.word	0
 1010 0020 0000      		.word	string0
 1011 0022 04        		.byte	4
 1012 0023 0103      		.word	769
 1013 0025 0904      		.word	1033
 1014 0027 0000      		.word	string1
 1015 0029 10        		.byte	16
 1016 002a 0203      		.word	770
 1017 002c 0904      		.word	1033
 1018 002e 0000      		.word	string2
 1019 0030 12        		.byte	18
 1020               		.lcomm usb_configuration,1
 1023               	endpoint_config_table:
 1024 0031 00        		.byte	0
 1025 0032 00        		.byte	0
 1026 0033 01        		.byte	1
 1027 0034 C1        		.byte	-63
 1028 0035 06        		.byte	6
 1029 0036 00        		.byte	0
 1030               		.data
 1033               	keyboard_idle_config:
 1034 0000 7D        		.byte	125
 1037               	keyboard_protocol:
 1038 0001 01        		.byte	1
 1039               		.lcomm keyboard_idle_count,1
 1040               		.lcomm div4.1423,1
 1041               		.section	.progmem.data
 1044               	device_descriptor:
 1045 0037 12        		.byte	18
 1046 0038 01        		.byte	1
 1047 0039 00        		.byte	0
 1048 003a 02        		.byte	2
 1049 003b 00        		.byte	0
 1050 003c 00        		.byte	0
 1051 003d 00        		.byte	0
 1052 003e 20        		.byte	32
 1053 003f C0        		.byte	-64
 1054 0040 16        		.byte	22
 1055 0041 7C        		.byte	124
 1056 0042 04        		.byte	4
 1057 0043 00        		.byte	0
 1058 0044 01        		.byte	1
 1059 0045 01        		.byte	1
 1060 0046 02        		.byte	2
 1061 0047 00        		.byte	0
 1062 0048 01        		.byte	1
 1065               	config1_descriptor:
 1066 0049 09        		.byte	9
 1067 004a 02        		.byte	2
 1068 004b 22        		.byte	34
 1069 004c 00        		.byte	0
 1070 004d 01        		.byte	1
 1071 004e 01        		.byte	1
 1072 004f 00        		.byte	0
 1073 0050 C0        		.byte	-64
 1074 0051 32        		.byte	50
 1075 0052 09        		.byte	9
 1076 0053 04        		.byte	4
 1077 0054 00        		.byte	0
 1078 0055 00        		.byte	0
 1079 0056 01        		.byte	1
 1080 0057 03        		.byte	3
 1081 0058 01        		.byte	1
 1082 0059 01        		.byte	1
 1083 005a 00        		.byte	0
 1084 005b 09        		.byte	9
 1085 005c 21        		.byte	33
 1086 005d 11        		.byte	17
 1087 005e 01        		.byte	1
 1088 005f 00        		.byte	0
 1089 0060 01        		.byte	1
 1090 0061 22        		.byte	34
 1091 0062 3F        		.byte	63
 1092 0063 00        		.byte	0
 1093 0064 07        		.byte	7
 1094 0065 05        		.byte	5
 1095 0066 83        		.byte	-125
 1096 0067 03        		.byte	3
 1097 0068 08        		.byte	8
 1098 0069 00        		.byte	0
 1099 006a 01        		.byte	1
 1102               	keyboard_hid_report_desc:
 1103 006b 05        		.byte	5
 1104 006c 01        		.byte	1
 1105 006d 09        		.byte	9
 1106 006e 06        		.byte	6
 1107 006f A1        		.byte	-95
 1108 0070 01        		.byte	1
 1109 0071 75        		.byte	117
 1110 0072 01        		.byte	1
 1111 0073 95        		.byte	-107
 1112 0074 08        		.byte	8
 1113 0075 05        		.byte	5
 1114 0076 07        		.byte	7
 1115 0077 19        		.byte	25
 1116 0078 E0        		.byte	-32
 1117 0079 29        		.byte	41
 1118 007a E7        		.byte	-25
 1119 007b 15        		.byte	21
 1120 007c 00        		.byte	0
 1121 007d 25        		.byte	37
 1122 007e 01        		.byte	1
 1123 007f 81        		.byte	-127
 1124 0080 02        		.byte	2
 1125 0081 95        		.byte	-107
 1126 0082 01        		.byte	1
 1127 0083 75        		.byte	117
 1128 0084 08        		.byte	8
 1129 0085 81        		.byte	-127
 1130 0086 03        		.byte	3
 1131 0087 95        		.byte	-107
 1132 0088 05        		.byte	5
 1133 0089 75        		.byte	117
 1134 008a 01        		.byte	1
 1135 008b 05        		.byte	5
 1136 008c 08        		.byte	8
 1137 008d 19        		.byte	25
 1138 008e 01        		.byte	1
 1139 008f 29        		.byte	41
 1140 0090 05        		.byte	5
 1141 0091 91        		.byte	-111
 1142 0092 02        		.byte	2
 1143 0093 95        		.byte	-107
 1144 0094 01        		.byte	1
 1145 0095 75        		.byte	117
 1146 0096 03        		.byte	3
 1147 0097 91        		.byte	-111
 1148 0098 03        		.byte	3
 1149 0099 95        		.byte	-107
 1150 009a 06        		.byte	6
 1151 009b 75        		.byte	117
 1152 009c 08        		.byte	8
 1153 009d 15        		.byte	21
 1154 009e 00        		.byte	0
 1155 009f 25        		.byte	37
 1156 00a0 68        		.byte	104
 1157 00a1 05        		.byte	5
 1158 00a2 07        		.byte	7
 1159 00a3 19        		.byte	25
 1160 00a4 00        		.byte	0
 1161 00a5 29        		.byte	41
 1162 00a6 68        		.byte	104
 1163 00a7 81        		.byte	-127
 1164 00a8 00        		.byte	0
 1165 00a9 C0        		.byte	-64
 1168               	string0:
 1169 00aa 04        		.byte	4
 1170 00ab 03        		.byte	3
 1171 00ac 0904      		.word	1033
 1174               	string1:
 1175 00ae 10        		.byte	16
 1176 00af 03        		.byte	3
 1177 00b0 4D00      		.string	"M"
 1178 00b2 6600      		.string	"f"
 1179 00b4 6700      		.string	"g"
 1180 00b6 4E00      		.string	"N"
 1181 00b8 6100      		.string	"a"
 1182 00ba 6D00      		.string	"m"
 1183 00bc 6500      		.string	"e"
 1184 00be 00        		.string	""
 1185 00bf 00        		.string	""
 1188               	string2:
 1189 00c0 12        		.byte	18
 1190 00c1 03        		.byte	3
 1191 00c2 4B00      		.string	"K"
 1192 00c4 6500      		.string	"e"
 1193 00c6 7900      		.string	"y"
 1194 00c8 6200      		.string	"b"
 1195 00ca 6F00      		.string	"o"
 1196 00cc 6100      		.string	"a"
 1197 00ce 7200      		.string	"r"
 1198 00d0 6400      		.string	"d"
 1199 00d2 00        		.string	""
 1200 00d3 00        		.string	""
 1265               	.Letext0:
DEFINED SYMBOLS
                            *ABS*:00000000 usb_keyboard.c
C:\Users\mcinnes\AppData\Local\Temp/cc2lLBWB.s:2      *ABS*:0000003f __SREG__
C:\Users\mcinnes\AppData\Local\Temp/cc2lLBWB.s:3      *ABS*:0000003e __SP_H__
C:\Users\mcinnes\AppData\Local\Temp/cc2lLBWB.s:4      *ABS*:0000003d __SP_L__
C:\Users\mcinnes\AppData\Local\Temp/cc2lLBWB.s:5      *ABS*:00000034 __CCP__
C:\Users\mcinnes\AppData\Local\Temp/cc2lLBWB.s:6      *ABS*:00000000 __tmp_reg__
C:\Users\mcinnes\AppData\Local\Temp/cc2lLBWB.s:7      *ABS*:00000001 __zero_reg__
C:\Users\mcinnes\AppData\Local\Temp/cc2lLBWB.s:19     .text.usb_init:00000000 usb_init
                             .bss:00000008 usb_configuration
C:\Users\mcinnes\AppData\Local\Temp/cc2lLBWB.s:62     .text.usb_configured:00000000 usb_configured
C:\Users\mcinnes\AppData\Local\Temp/cc2lLBWB.s:77     .text.usb_keyboard_send:00000000 usb_keyboard_send
C:\Users\mcinnes\AppData\Local\Temp/cc2lLBWB.s:974    .bss:00000000 keyboard_modifier_keys
C:\Users\mcinnes\AppData\Local\Temp/cc2lLBWB.s:980    .bss:00000001 keyboard_keys
C:\Users\mcinnes\AppData\Local\Temp/cc2lLBWB.s:1020   .bss:00000009 keyboard_idle_count
C:\Users\mcinnes\AppData\Local\Temp/cc2lLBWB.s:169    .text.usb_keyboard_press:00000000 usb_keyboard_press
C:\Users\mcinnes\AppData\Local\Temp/cc2lLBWB.s:202    .text.__vector_10:00000000 __vector_10
C:\Users\mcinnes\AppData\Local\Temp/cc2lLBWB.s:1033   .data:00000000 keyboard_idle_config
C:\Users\mcinnes\AppData\Local\Temp/cc2lLBWB.s:1039   .bss:0000000a div4.1423
C:\Users\mcinnes\AppData\Local\Temp/cc2lLBWB.s:313    .text.__vector_11:00000000 __vector_11
C:\Users\mcinnes\AppData\Local\Temp/cc2lLBWB.s:991    .progmem.data:00000000 descriptor_list
C:\Users\mcinnes\AppData\Local\Temp/cc2lLBWB.s:1023   .progmem.data:00000031 endpoint_config_table
C:\Users\mcinnes\AppData\Local\Temp/cc2lLBWB.s:1037   .data:00000001 keyboard_protocol
C:\Users\mcinnes\AppData\Local\Temp/cc2lLBWB.s:986    .bss:00000007 keyboard_leds
C:\Users\mcinnes\AppData\Local\Temp/cc2lLBWB.s:1044   .progmem.data:00000037 device_descriptor
C:\Users\mcinnes\AppData\Local\Temp/cc2lLBWB.s:1065   .progmem.data:00000049 config1_descriptor
C:\Users\mcinnes\AppData\Local\Temp/cc2lLBWB.s:1102   .progmem.data:0000006b keyboard_hid_report_desc
C:\Users\mcinnes\AppData\Local\Temp/cc2lLBWB.s:1168   .progmem.data:000000aa string0
C:\Users\mcinnes\AppData\Local\Temp/cc2lLBWB.s:1174   .progmem.data:000000ae string1
C:\Users\mcinnes\AppData\Local\Temp/cc2lLBWB.s:1188   .progmem.data:000000c0 string2

UNDEFINED SYMBOLS
__do_copy_data
__do_clear_bss
